cnumpy.core.multiarray
_reconstruct
p0
(cnumpy
ndarray
p1
(L0L
tp2
c_codecs
encode
p3
(Vb
p4
Vlatin1
p5
tp6
Rp7
tp8
Rp9
(L1L
(L900L
tp10
cnumpy
dtype
p11
(VO8
p12
L0L
L1L
tp13
Rp14
(L3L
V|
p15
NNNL-1L
L-1L
L63L
tp16
bI00
(lp17
Vfoo
p18
aVbar
p19
aVbaz
p20
ag18
ag19
ag20
ag18
ag19
ag20
ag18
ag19
ag20
ag18
ag19
ag20
ag18
ag19
ag20
ag18
ag19
ag20
ag18
ag19
ag20
ag18
ag19
ag20
ag18
ag19
ag20
ag18
ag19
ag20
ag18
ag19
ag20
ag18
ag19
ag20
ag18
ag19
ag20
ag18
ag19
ag20
ag18
ag19
ag20
ag18
ag19
ag20
ag18
ag19
ag20
ag18
ag19
ag20
ag18
ag19
ag20
ag18
ag19
ag20
ag18
ag19
ag20
ag18
ag19
ag20
ag18
ag19
ag20
ag18
ag19
ag20
ag18
ag19
ag20
ag18
ag19
ag20
ag18
ag19
ag20
ag18
ag19
ag20
ag18
ag19
ag20
ag18
ag19
ag20
ag18
ag19
ag20
ag18
ag19
ag20
ag18
ag19
ag20
ag18
ag19
ag20
ag18
ag19
ag20
ag18
ag19
ag20
ag18
ag19
ag20
ag18
ag19
ag20
ag18
ag19
ag20
ag18
ag19
ag20
ag18
ag19
ag20
ag18
ag19
ag20
ag18
ag19
ag20
ag18
ag19
ag20
ag18
ag19
ag20
ag18
ag19
ag20
ag18
ag19
ag20
ag18
ag19
ag20
ag18
ag19
ag20
ag18
ag19
ag20
ag18
ag19
ag20
ag18
ag19
ag20
ag18
ag19
ag20
ag18
ag19
ag20
ag18
ag19
ag20
ag18
ag19
ag20
ag18
ag19
ag20
ag18
ag19
ag20
ag18
ag19
ag20
ag18
ag19
ag20
ag18
ag19
ag20
ag18
ag19
ag20
ag18
ag19
ag20
ag18
ag19
ag20
ag18
ag19
ag20
ag18
ag19
ag20
ag18
ag19
ag20
ag18
ag19
ag20
ag18
ag19
ag20
ag18
ag19
ag20
ag18
ag19
ag20
ag18
ag19
ag20
ag18
ag19
ag20
ag18
ag19
ag20
ag18
ag19
ag20
ag18
ag19
ag20
ag18
ag19
ag20
ag18
ag19
ag20
ag18
ag19
ag20
ag18
ag19
ag20
ag18
ag19
ag20
ag18
ag19
ag20
ag18
ag19
ag20
ag18
ag19
ag20
ag18
ag19
ag20
ag18
ag19
ag20
ag18
ag19
ag20
ag18
ag19
ag20
ag18
ag19
ag20
ag18
ag19
ag20
ag18
ag19
ag20
ag18
ag19
ag20
ag18
ag19
ag20
ag18
ag19
ag20
ag18
ag19
ag20
ag18
ag19
ag20
ag18
ag19
ag20
ag18
ag19
ag20
ag18
ag19
ag20
ag18
ag19
ag20
ag18
ag19
ag20
ag18
ag19
ag20
ag18
ag19
ag20
ag18
ag19
ag20
ag18
ag19
ag20
ag18
ag19
ag20
ag18
ag19
ag20
ag18
ag19
ag20
ag18
ag19
ag20
ag18
ag19
ag20
ag18
ag19
ag20
ag18
ag19
ag20
ag18
ag19
ag20
ag18
ag19
ag20
ag18
ag19
ag20
ag18
ag19
ag20
ag18
ag19
ag20
ag18
ag19
ag20
ag18
ag19
ag20
ag18
ag19
ag20
ag18
ag19
ag20
ag18
ag19
ag20
ag18
ag19
ag20
ag18
ag19
ag20
ag18
ag19
ag20
ag18
ag19
ag20
ag18
ag19
ag20
ag18
ag19
ag20
ag18
ag19
ag20
ag18
ag19
ag20
ag18
ag19
ag20
ag18
ag19
ag20
ag18
ag19
ag20
ag18
ag19
ag20
ag18
ag19
ag20
ag18
ag19
ag20
ag18
ag19
ag20
ag18
ag19
ag20
ag18
ag19
ag20
ag18
ag19
ag20
ag18
ag19
ag20
ag18
ag19
ag20
ag18
ag19
ag20
ag18
ag19
ag20
ag18
ag19
ag20
ag18
ag19
ag20
ag18
ag19
ag20
ag18
ag19
ag20
ag18
ag19
ag20
ag18
ag19
ag20
ag18
ag19
ag20
ag18
ag19
ag20
ag18
ag19
ag20
ag18
ag19
ag20
ag18
ag19
ag20
ag18
ag19
ag20
ag18
ag19
ag20
ag18
ag19
ag20
ag18
ag19
ag20
ag18
ag19
ag20
ag18
ag19
ag20
ag18
ag19
ag20
ag18
ag19
ag20
ag18
ag19
ag20
ag18
ag19
ag20
ag18
ag19
ag20
ag18
ag19
ag20
ag18
ag19
ag20
ag18
ag19
ag20
ag18
ag19
ag20
ag18
ag19
ag20
ag18
ag19
ag20
ag18
ag19
ag20
ag18
ag19
ag20
ag18
ag19
ag20
ag18
ag19
ag20
ag18
ag19
ag20
ag18
ag19
ag20
ag18
ag19
ag20
ag18
ag19
ag20
ag18
ag19
ag20
ag18
ag19
ag20
ag18
ag19
ag20
ag18
ag19
ag20
ag18
ag19
ag20
ag18
ag19
ag20
ag18
ag19
ag20
ag18
ag19
ag20
ag18
ag19
ag20
ag18
ag19
ag20
ag18
ag19
ag20
ag18
ag19
ag20
ag18
ag19
ag20
ag18
ag19
ag20
ag18
ag19
ag20
ag18
ag19
ag20
ag18
ag19
ag20
ag18
ag19
ag20
ag18
ag19
ag20
ag18
ag19
ag20
ag18
ag19
ag20
ag18
ag19
ag20
ag18
ag19
ag20
ag18
ag19
ag20
ag18
ag19
ag20
ag18
ag19
ag20
ag18
ag19
ag20
ag18
ag19
ag20
ag18
ag19
ag20
ag18
ag19
ag20
ag18
ag19
ag20
ag18
ag19
ag20
ag18
ag19
ag20
ag18
ag19
ag20
ag18
ag19
ag20
ag18
ag19
ag20
ag18
ag19
ag20
ag18
ag19
ag20
ag18
ag19
ag20
ag18
ag19
ag20
ag18
ag19
ag20
ag18
ag19
ag20
ag18
ag19
ag20
ag18
ag19
ag20
ag18
ag19
ag20
ag18
ag19
ag20
ag18
ag19
ag20
ag18
ag19
ag20
ag18
ag19
ag20
ag18
ag19
ag20
ag18
ag19
ag20
ag18
ag19
ag20
ag18
ag19
ag20
ag18
ag19
ag20
ag18
ag19
ag20
ag18
ag19
ag20
ag18
ag19
ag20
ag18
ag19
ag20
ag18
ag19
ag20
ag18
ag19
ag20
ag18
ag19
ag20
ag18
ag19
ag20
ag18
ag19
ag20
ag18
ag19
ag20
ag18
ag19
ag20
ag18
ag19
ag20
ag18
ag19
ag20
ag18
ag19
ag20
ag18
ag19
ag20
ag18
ag19
ag20
ag18
ag19
ag20
ag18
ag19
ag20
ag18
ag19
ag20
ag18
ag19
ag20
ag18
ag19
ag20
ag18
ag19
ag20
ag18
ag19
ag20
ag18
ag19
ag20
ag18
ag19
ag20
ag18
ag19
ag20
ag18
ag19
ag20
ag18
ag19
ag20
ag18
ag19
ag20
ag18
ag19
ag20
ag18
ag19
ag20
ag18
ag19
ag20
ag18
ag19
ag20
ag18
ag19
ag20
ag18
ag19
ag20
ag18
ag19
ag20
ag18
ag19
ag20
ag18
ag19
ag20
ag18
ag19
ag20
ag18
ag19
ag20
ag18
ag19
ag20
ag18
ag19
ag20
ag18
ag19
ag20
ag18
ag19
ag20
ag18
ag19
ag20
ag18
ag19
ag20
ag18
ag19
ag20
ag18
ag19
ag20
ag18
ag19
ag20
ag18
ag19
ag20
ag18
ag19
ag20
ag18
ag19
ag20
ag18
ag19
ag20
ag18
ag19
ag20
ag18
ag19
ag20
ag18
ag19
ag20
ag18
ag19
ag20
ag18
ag19
ag20
ag18
ag19
ag20
ag18
ag19
ag20
ag18
ag19
ag20
ag18
ag19
ag20
ag18
ag19
ag20
ag18
ag19
ag20
ag18
ag19
ag20
atp21
b.